target datalayout = "e-m:e-p270:32:32-p271:32:32-p272:64:64-i64:64-i128:128-f80:128-n8:16:32:64-S128"
target triple = "x86_64-pc-linux-gnu"

; Function Attrs: nounwind uwtable
define ptr @l_List_partitionM_go___rarg___lambda__1(ptr noundef %0, ptr noundef %1, ptr noundef %2, ptr noundef %3, ptr noundef %4, ptr noundef %5, i8 noundef zeroext %6) #2 {
  %8 = alloca ptr, align 8
  %9 = alloca ptr, align 8
  %10 = alloca ptr, align 8
  %11 = alloca ptr, align 8
  %12 = alloca ptr, align 8
  %13 = alloca ptr, align 8
  %14 = alloca ptr, align 8
  %15 = alloca i8, align 1
  %16 = alloca ptr, align 8
  %17 = alloca ptr, align 8
  %18 = alloca ptr, align 8
  %19 = alloca ptr, align 8
  store ptr %0, ptr %9, align 8, !tbaa !8
  store ptr %1, ptr %10, align 8, !tbaa !8
  store ptr %2, ptr %11, align 8, !tbaa !8
  store ptr %3, ptr %12, align 8, !tbaa !8
  store ptr %4, ptr %13, align 8, !tbaa !8
  store ptr %5, ptr %14, align 8, !tbaa !8
  store i8 %6, ptr %15, align 1, !tbaa !10
  br label %20

20:                                               ; preds = %7
  %21 = load i8, ptr %15, align 1, !tbaa !10
  %22 = zext i8 %21 to i32
  %23 = icmp eq i32 %22, 0
  br i1 %23, label %24, label %35

24:                                               ; preds = %20
  call void @llvm.lifetime.start.p0(i64 8, ptr %16) #7
  call void @llvm.lifetime.start.p0(i64 8, ptr %17) #7
  %25 = load ptr, ptr %9, align 8, !tbaa !8
  %26 = load ptr, ptr %10, align 8, !tbaa !8
  %27 = call ptr @lean_array_push(ptr noundef %25, ptr noundef %26)
  store ptr %27, ptr %16, align 8, !tbaa !8
  %28 = load ptr, ptr %11, align 8, !tbaa !8
  %29 = load ptr, ptr %12, align 8, !tbaa !8
  %30 = load ptr, ptr %13, align 8, !tbaa !8
  %31 = load ptr, ptr %14, align 8, !tbaa !8
  %32 = load ptr, ptr %16, align 8, !tbaa !8
  %33 = call ptr @l_List_partitionM_go___rarg(ptr noundef %28, ptr noundef %29, ptr noundef %30, ptr noundef %31, ptr noundef %32)
  store ptr %33, ptr %17, align 8, !tbaa !8
  %34 = load ptr, ptr %17, align 8, !tbaa !8
  store ptr %34, ptr %8, align 8
  call void @llvm.lifetime.end.p0(i64 8, ptr %17) #7
  call void @llvm.lifetime.end.p0(i64 8, ptr %16) #7
  br label %46

35:                                               ; preds = %20
  call void @llvm.lifetime.start.p0(i64 8, ptr %18) #7
  call void @llvm.lifetime.start.p0(i64 8, ptr %19) #7
  %36 = load ptr, ptr %14, align 8, !tbaa !8
  %37 = load ptr, ptr %10, align 8, !tbaa !8
  %38 = call ptr @lean_array_push(ptr noundef %36, ptr noundef %37)
  store ptr %38, ptr %18, align 8, !tbaa !8
  %39 = load ptr, ptr %11, align 8, !tbaa !8
  %40 = load ptr, ptr %12, align 8, !tbaa !8
  %41 = load ptr, ptr %13, align 8, !tbaa !8
  %42 = load ptr, ptr %18, align 8, !tbaa !8
  %43 = load ptr, ptr %9, align 8, !tbaa !8
  %44 = call ptr @l_List_partitionM_go___rarg(ptr noundef %39, ptr noundef %40, ptr noundef %41, ptr noundef %42, ptr noundef %43)
  store ptr %44, ptr %19, align 8, !tbaa !8
  %45 = load ptr, ptr %19, align 8, !tbaa !8
  store ptr %45, ptr %8, align 8
  call void @llvm.lifetime.end.p0(i64 8, ptr %19) #7
  call void @llvm.lifetime.end.p0(i64 8, ptr %18) #7
  br label %46

46:                                               ; preds = %35, %24
  %47 = load ptr, ptr %8, align 8
  ret ptr %47
}