; Function Attrs: nounwind uwtable
define ptr @l_List_partitionM_go___rarg___lambda__1(ptr noundef %0, ptr noundef %1, ptr noundef %2, ptr noundef %3, ptr noundef %4, ptr noundef %5, i8 noundef zeroext %6) local_unnamed_addr #0 {
  %8 = icmp eq i8 %6, 0
  br i1 %8, label %9, label %12

9:                                                ; preds = %7
  %10 = tail call ptr @lean_array_push(ptr noundef %0, ptr noundef %1) #4
  %11 = tail call ptr @l_List_partitionM_go___rarg(ptr noundef %2, ptr noundef %3, ptr noundef %4, ptr noundef %5, ptr noundef %10)
  br label %15

12:                                               ; preds = %7
  %13 = tail call ptr @lean_array_push(ptr noundef %5, ptr noundef %1) #4
  %14 = tail call ptr @l_List_partitionM_go___rarg(ptr noundef %2, ptr noundef %3, ptr noundef %4, ptr noundef %13, ptr noundef %0)
  br label %15

15:                                               ; preds = %12, %9
  %.0 = phi ptr [ %11, %9 ], [ %14, %12 ]
  ret ptr %.0
}